; Function Attrs: mustprogress nounwind uwtable
define hidden i64 @_ZN18ModRefBarrierSetC126atomic_cmpxchg_at_resolvedER9LIRAccessR7LIRItemS3_(ptr noundef nonnull align 8 dereferenceable(8) %0, ptr noundef nonnull align 8 dereferenceable(80) %1, ptr noundef nonnull align 8 dereferenceable(40) %2, ptr noundef nonnull align 8 dereferenceable(40) %3) unnamed_addr #0 align 2 {
  %5 = getelementptr inbounds i8, ptr %1, i64 48
  %6 = load i8, ptr %5, align 8
  %7 = and i8 %6, -2
  %or.cond.i.i = icmp eq i8 %7, 12
  br i1 %or.cond.i.i, label %8, label %13

8:                                                ; preds = %4
  %9 = getelementptr inbounds i8, ptr %1, i64 56
  %.sroa.0.0.copyload.i = load i64, ptr %9, align 8
  %.sroa.02.0.copyload = load i64, ptr @_ZN11LIR_OprFact10illegalOprE, align 8
  %10 = load ptr, ptr %0, align 8
  %11 = getelementptr inbounds i8, ptr %10, i64 112
  %12 = load ptr, ptr %11, align 8
  tail call void %12(ptr noundef nonnull align 8 dereferenceable(8) %0, ptr noundef nonnull align 8 dereferenceable(80) %1, i64 %.sroa.0.0.copyload.i, i64 %.sroa.02.0.copyload, ptr noundef null) #4
  br label %13

13:                                               ; preds = %8, %4
  %14 = tail call i64 @_ZN12BarrierSetC126atomic_cmpxchg_at_resolvedER9LIRAccessR7LIRItemS3_(ptr noundef nonnull align 8 dereferenceable(8) %0, ptr noundef nonnull align 8 dereferenceable(80) %1, ptr noundef nonnull align 8 dereferenceable(40) %2, ptr noundef nonnull align 8 dereferenceable(40) %3) #4
  %15 = load i8, ptr %5, align 8
  %16 = and i8 %15, -2
  %or.cond.i.i15 = icmp eq i8 %16, 12
  br i1 %or.cond.i.i15, label %17, label %47

17:                                               ; preds = %13
  %18 = getelementptr inbounds i8, ptr %1, i64 56
  %.sroa.0.0.copyload.i16 = load i64, ptr %18, align 8
  %19 = getelementptr inbounds i8, ptr %3, i64 24
  %20 = load i8, ptr %19, align 8
  %21 = trunc i8 %20 to i1
  br i1 %21, label %22, label %42

22:                                               ; preds = %17
  %23 = getelementptr inbounds i8, ptr %3, i64 16
  %24 = load i64, ptr %23, align 8
  %25 = and i64 %24, 7
  switch i64 %25, label %42 [
    i64 5, label %26
    i64 3, label %26
  ]

26:                                               ; preds = %22, %22
  %27 = getelementptr inbounds i8, ptr %3, i64 32
  %28 = load i64, ptr %27, align 8
  %29 = and i64 %28, 7
  %30 = icmp eq i64 %29, 7
  br i1 %30, label %31, label %_ZN7LIRItem6resultEv.exit

31:                                               ; preds = %26
  %32 = getelementptr inbounds i8, ptr %3, i64 8
  %33 = load ptr, ptr %32, align 8
  %34 = load ptr, ptr %3, align 8
  %35 = getelementptr inbounds i8, ptr %34, i64 24
  %36 = load ptr, ptr %35, align 8
  %37 = tail call noundef zeroext i8 @_Z12as_BasicTypeP9ValueType(ptr noundef %36) #4
  %38 = tail call i64 @_ZN12LIRGenerator12new_registerE9BasicType(ptr noundef nonnull align 8 dereferenceable(232) %33, i8 noundef zeroext %37) #4
  store i64 %38, ptr %27, align 8
  %39 = load ptr, ptr %32, align 8
  %40 = getelementptr inbounds i8, ptr %39, i64 144
  %41 = load ptr, ptr %40, align 8
  %.sroa.01.0.copyload.i = load i64, ptr %23, align 8
  tail call void @_ZN8LIR_List4moveE7LIR_OprS0_P12CodeEmitInfo(ptr noundef nonnull align 8 dereferenceable(32) %41, i64 %.sroa.01.0.copyload.i, i64 %38, ptr noundef null)
  br label %_ZN7LIRItem6resultEv.exit

42:                                               ; preds = %22, %17
  %43 = getelementptr inbounds i8, ptr %3, i64 16
  br label %_ZN7LIRItem6resultEv.exit

_ZN7LIRItem6resultEv.exit:                        ; preds = %26, %31, %42
  %.sroa.03.0.in.i = phi ptr [ %43, %42 ], [ %27, %31 ], [ %27, %26 ]
  %.sroa.03.0.i = load i64, ptr %.sroa.03.0.in.i, align 8
  %44 = load ptr, ptr %0, align 8
  %45 = getelementptr inbounds i8, ptr %44, i64 120
  %46 = load ptr, ptr %45, align 8
  tail call void %46(ptr noundef nonnull align 8 dereferenceable(8) %0, ptr noundef nonnull align 8 dereferenceable(80) %1, i64 %.sroa.0.0.copyload.i16, i64 %.sroa.03.0.i) #4
  br label %47

47:                                               ; preds = %_ZN7LIRItem6resultEv.exit, %13
  ret i64 %14
}